; Function Attrs: nounwind uwtable
define hidden void @zim_SensitiveParameterValue___construct(ptr noundef %0, ptr nocapture readnone %1) #0 {
  %3 = getelementptr inbounds i8, ptr %0, i64 44
  %4 = load i32, ptr %3, align 4
  %cond = icmp eq i32 %4, 1
  br i1 %cond, label %6, label %5

5:                                                ; preds = %2
  tail call void @zend_wrong_parameters_count_error(i32 noundef 1, i32 noundef 1) #16
  tail call void @zend_wrong_parameter_error(i32 noundef 1, i32 noundef 0, ptr noundef null, i32 noundef 0, ptr noundef null) #16
  br label %14

6:                                                ; preds = %2
  %7 = getelementptr inbounds i8, ptr %0, i64 32
  %8 = getelementptr inbounds i8, ptr %0, i64 80
  %9 = load ptr, ptr @zend_ce_sensitive_parameter_value, align 8
  %10 = load ptr, ptr %7, align 8
  %11 = load ptr, ptr @zend_known_strings, align 8
  %12 = getelementptr inbounds i8, ptr %11, i64 160
  %13 = load ptr, ptr %12, align 8
  tail call void @zend_update_property_ex(ptr noundef %9, ptr noundef %10, ptr noundef %13, ptr noundef nonnull %8) #16
  br label %14

14:                                               ; preds = %6, %5
  ret void
}